target datalayout = "e-m:e-p270:32:32-p271:32:32-p272:64:64-i64:64-i128:128-f80:128-n8:16:32:64-S128"
target triple = "x86_64-pc-linux-gnu"

%struct.Tuplesortstate = type { %struct.TuplesortPublic, i32, i8, i8, i32, i64, i64, i64, i32, i64, i8, i32, ptr, ptr, i32, i32, i8, i8, ptr, ptr, ptr, i64, ptr, i32, ptr, i32, i32, ptr, i32, i32, ptr, ptr, i32, i8, i64, i32, i8, i32, ptr, i32, i64, %struct.PGRUsage }
%struct.TuplesortPublic = type { ptr, ptr, ptr, ptr, ptr, ptr, ptr, ptr, ptr, i8, i32, ptr, ptr, i32, i8, ptr }
%struct.PGRUsage = type { %struct.timeval, %struct.rusage }
%struct.timeval = type { i64, i64 }
%struct.rusage = type { %struct.timeval, %struct.timeval, %union.anon, %union.anon.0, %union.anon.1, %union.anon.2, %union.anon.3, %union.anon.4, %union.anon.5, %union.anon.6, %union.anon.7, %union.anon.8, %union.anon.9, %union.anon.10, %union.anon.11, %union.anon.12 }
%union.anon = type { i64 }
%union.anon.0 = type { i64 }
%union.anon.1 = type { i64 }
%union.anon.2 = type { i64 }
%union.anon.3 = type { i64 }
%union.anon.4 = type { i64 }
%union.anon.5 = type { i64 }
%union.anon.6 = type { i64 }
%union.anon.7 = type { i64 }
%union.anon.8 = type { i64 }
%union.anon.9 = type { i64 }
%union.anon.10 = type { i64 }
%union.anon.11 = type { i64 }
%union.anon.12 = type { i64 }
%struct.SortSupportData = type { ptr, i32, i8, i8, i16, ptr, ptr, i8, ptr, ptr, ptr }

; Function Attrs: nounwind uwtable
define internal void @tuplesort_sort_memtuples(ptr noundef %0) #0 {
  %2 = alloca ptr, align 8
  store ptr %0, ptr %2, align 8
  %3 = load ptr, ptr %2, align 8
  %4 = getelementptr inbounds nuw %struct.Tuplesortstate, ptr %3, i32 0, i32 14
  %5 = load i32, ptr %4, align 8
  %6 = icmp sgt i32 %5, 1
  br i1 %6, label %7, label %108

7:                                                ; preds = %1
  %8 = load ptr, ptr %2, align 8
  %9 = getelementptr inbounds nuw %struct.Tuplesortstate, ptr %8, i32 0, i32 0
  %10 = getelementptr inbounds nuw %struct.TuplesortPublic, ptr %9, i32 0, i32 9
  %11 = load i8, ptr %10, align 8, !range !4, !noundef !5
  %12 = trunc i8 %11 to i1
  br i1 %12, label %13, label %76

13:                                               ; preds = %7
  %14 = load ptr, ptr %2, align 8
  %15 = getelementptr inbounds nuw %struct.Tuplesortstate, ptr %14, i32 0, i32 0
  %16 = getelementptr inbounds nuw %struct.TuplesortPublic, ptr %15, i32 0, i32 11
  %17 = load ptr, ptr %16, align 8
  %18 = icmp ne ptr %17, null
  br i1 %18, label %19, label %76

19:                                               ; preds = %13
  %20 = load ptr, ptr %2, align 8
  %21 = getelementptr inbounds nuw %struct.Tuplesortstate, ptr %20, i32 0, i32 0
  %22 = getelementptr inbounds nuw %struct.TuplesortPublic, ptr %21, i32 0, i32 11
  %23 = load ptr, ptr %22, align 8
  %24 = getelementptr inbounds %struct.SortSupportData, ptr %23, i64 0
  %25 = getelementptr inbounds nuw %struct.SortSupportData, ptr %24, i32 0, i32 6
  %26 = load ptr, ptr %25, align 8
  %27 = icmp eq ptr %26, @ssup_datum_unsigned_cmp
  br i1 %27, label %28, label %37

28:                                               ; preds = %19
  %29 = load ptr, ptr %2, align 8
  %30 = getelementptr inbounds nuw %struct.Tuplesortstate, ptr %29, i32 0, i32 13
  %31 = load ptr, ptr %30, align 8
  %32 = load ptr, ptr %2, align 8
  %33 = getelementptr inbounds nuw %struct.Tuplesortstate, ptr %32, i32 0, i32 14
  %34 = load i32, ptr %33, align 8
  %35 = sext i32 %34 to i64
  %36 = load ptr, ptr %2, align 8
  call void @qsort_tuple_unsigned(ptr noundef %31, i64 noundef %35, ptr noundef %36)
  br label %108

37:                                               ; preds = %19
  %38 = load ptr, ptr %2, align 8
  %39 = getelementptr inbounds nuw %struct.Tuplesortstate, ptr %38, i32 0, i32 0
  %40 = getelementptr inbounds nuw %struct.TuplesortPublic, ptr %39, i32 0, i32 11
  %41 = load ptr, ptr %40, align 8
  %42 = getelementptr inbounds %struct.SortSupportData, ptr %41, i64 0
  %43 = getelementptr inbounds nuw %struct.SortSupportData, ptr %42, i32 0, i32 6
  %44 = load ptr, ptr %43, align 8
  %45 = icmp eq ptr %44, @ssup_datum_signed_cmp
  br i1 %45, label %46, label %55

46:                                               ; preds = %37
  %47 = load ptr, ptr %2, align 8
  %48 = getelementptr inbounds nuw %struct.Tuplesortstate, ptr %47, i32 0, i32 13
  %49 = load ptr, ptr %48, align 8
  %50 = load ptr, ptr %2, align 8
  %51 = getelementptr inbounds nuw %struct.Tuplesortstate, ptr %50, i32 0, i32 14
  %52 = load i32, ptr %51, align 8
  %53 = sext i32 %52 to i64
  %54 = load ptr, ptr %2, align 8
  call void @qsort_tuple_signed(ptr noundef %49, i64 noundef %53, ptr noundef %54)
  br label %108

55:                                               ; preds = %37
  %56 = load ptr, ptr %2, align 8
  %57 = getelementptr inbounds nuw %struct.Tuplesortstate, ptr %56, i32 0, i32 0
  %58 = getelementptr inbounds nuw %struct.TuplesortPublic, ptr %57, i32 0, i32 11
  %59 = load ptr, ptr %58, align 8
  %60 = getelementptr inbounds %struct.SortSupportData, ptr %59, i64 0
  %61 = getelementptr inbounds nuw %struct.SortSupportData, ptr %60, i32 0, i32 6
  %62 = load ptr, ptr %61, align 8
  %63 = icmp eq ptr %62, @ssup_datum_int32_cmp
  br i1 %63, label %64, label %73

64:                                               ; preds = %55
  %65 = load ptr, ptr %2, align 8
  %66 = getelementptr inbounds nuw %struct.Tuplesortstate, ptr %65, i32 0, i32 13
  %67 = load ptr, ptr %66, align 8
  %68 = load ptr, ptr %2, align 8
  %69 = getelementptr inbounds nuw %struct.Tuplesortstate, ptr %68, i32 0, i32 14
  %70 = load i32, ptr %69, align 8
  %71 = sext i32 %70 to i64
  %72 = load ptr, ptr %2, align 8
  call void @qsort_tuple_int32(ptr noundef %67, i64 noundef %71, ptr noundef %72)
  br label %108

73:                                               ; preds = %55
  br label %74

74:                                               ; preds = %73
  br label %75

75:                                               ; preds = %74
  br label %76

76:                                               ; preds = %75, %13, %7
  %77 = load ptr, ptr %2, align 8
  %78 = getelementptr inbounds nuw %struct.Tuplesortstate, ptr %77, i32 0, i32 0
  %79 = getelementptr inbounds nuw %struct.TuplesortPublic, ptr %78, i32 0, i32 12
  %80 = load ptr, ptr %79, align 8
  %81 = icmp ne ptr %80, null
  br i1 %81, label %82, label %94

82:                                               ; preds = %76
  %83 = load ptr, ptr %2, align 8
  %84 = getelementptr inbounds nuw %struct.Tuplesortstate, ptr %83, i32 0, i32 13
  %85 = load ptr, ptr %84, align 8
  %86 = load ptr, ptr %2, align 8
  %87 = getelementptr inbounds nuw %struct.Tuplesortstate, ptr %86, i32 0, i32 14
  %88 = load i32, ptr %87, align 8
  %89 = sext i32 %88 to i64
  %90 = load ptr, ptr %2, align 8
  %91 = getelementptr inbounds nuw %struct.Tuplesortstate, ptr %90, i32 0, i32 0
  %92 = getelementptr inbounds nuw %struct.TuplesortPublic, ptr %91, i32 0, i32 12
  %93 = load ptr, ptr %92, align 8
  call void @qsort_ssup(ptr noundef %85, i64 noundef %89, ptr noundef %93)
  br label %107

94:                                               ; preds = %76
  %95 = load ptr, ptr %2, align 8
  %96 = getelementptr inbounds nuw %struct.Tuplesortstate, ptr %95, i32 0, i32 13
  %97 = load ptr, ptr %96, align 8
  %98 = load ptr, ptr %2, align 8
  %99 = getelementptr inbounds nuw %struct.Tuplesortstate, ptr %98, i32 0, i32 14
  %100 = load i32, ptr %99, align 8
  %101 = sext i32 %100 to i64
  %102 = load ptr, ptr %2, align 8
  %103 = getelementptr inbounds nuw %struct.Tuplesortstate, ptr %102, i32 0, i32 0
  %104 = getelementptr inbounds nuw %struct.TuplesortPublic, ptr %103, i32 0, i32 0
  %105 = load ptr, ptr %104, align 8
  %106 = load ptr, ptr %2, align 8
  call void @qsort_tuple(ptr noundef %97, i64 noundef %101, ptr noundef %105, ptr noundef %106)
  br label %107

107:                                              ; preds = %94, %82
  br label %108

108:                                              ; preds = %28, %46, %64, %107, %1
  ret void
}