; Function Attrs: nounwind uwtable
define internal fastcc void @tuplesort_sort_memtuples(ptr noundef %0) unnamed_addr #0 {
  %2 = getelementptr inbounds nuw i8, ptr %0, i64 192
  %3 = load i32, ptr %2, align 8
  %4 = icmp sgt i32 %3, 1
  br i1 %4, label %5, label %41

5:                                                ; preds = %1
  %6 = getelementptr inbounds nuw i8, ptr %0, i64 72
  %7 = load i8, ptr %6, align 8, !range !4, !noundef !5
  %8 = trunc nuw i8 %7 to i1
  br i1 %8, label %9, label %32

9:                                                ; preds = %5
  %10 = getelementptr inbounds nuw i8, ptr %0, i64 80
  %11 = load ptr, ptr %10, align 8
  %.not = icmp eq ptr %11, null
  br i1 %.not, label %32, label %12

12:                                               ; preds = %9
  %13 = getelementptr inbounds nuw i8, ptr %11, i64 24
  %14 = load ptr, ptr %13, align 8
  %15 = icmp eq ptr %14, @ssup_datum_unsigned_cmp
  br i1 %15, label %16, label %20

16:                                               ; preds = %12
  %17 = getelementptr inbounds nuw i8, ptr %0, i64 184
  %18 = load ptr, ptr %17, align 8
  %19 = zext nneg i32 %3 to i64
  tail call fastcc void @qsort_tuple_unsigned(ptr noundef %18, i64 noundef %19, ptr noundef nonnull %0)
  br label %41

20:                                               ; preds = %12
  %21 = icmp eq ptr %14, @ssup_datum_signed_cmp
  br i1 %21, label %22, label %26

22:                                               ; preds = %20
  %23 = getelementptr inbounds nuw i8, ptr %0, i64 184
  %24 = load ptr, ptr %23, align 8
  %25 = zext nneg i32 %3 to i64
  tail call fastcc void @qsort_tuple_signed(ptr noundef %24, i64 noundef %25, ptr noundef nonnull %0)
  br label %41

26:                                               ; preds = %20
  %27 = icmp eq ptr %14, @ssup_datum_int32_cmp
  br i1 %27, label %28, label %32

28:                                               ; preds = %26
  %29 = getelementptr inbounds nuw i8, ptr %0, i64 184
  %30 = load ptr, ptr %29, align 8
  %31 = zext nneg i32 %3 to i64
  tail call fastcc void @qsort_tuple_int32(ptr noundef %30, i64 noundef %31, ptr noundef nonnull %0)
  br label %41

32:                                               ; preds = %26, %9, %5
  %33 = getelementptr inbounds nuw i8, ptr %0, i64 88
  %34 = load ptr, ptr %33, align 8
  %.not26 = icmp eq ptr %34, null
  %35 = getelementptr inbounds nuw i8, ptr %0, i64 184
  %36 = load ptr, ptr %35, align 8
  %37 = zext nneg i32 %3 to i64
  br i1 %.not26, label %39, label %38

38:                                               ; preds = %32
  tail call fastcc void @qsort_ssup(ptr noundef %36, i64 noundef %37, ptr noundef %34)
  br label %41

39:                                               ; preds = %32
  %40 = load ptr, ptr %0, align 8
  tail call fastcc void @qsort_tuple(ptr noundef %36, i64 noundef %37, ptr noundef %40, ptr noundef nonnull %0)
  br label %41

41:                                               ; preds = %38, %39, %28, %22, %16, %1
  ret void
}